target datalayout = "e-m:e-p270:32:32-p271:32:32-p272:64:64-i64:64-i128:128-f80:128-n8:16:32:64-S128"
target triple = "x86_64-pc-linux-gnu"

%struct.slurmctld_resv = type { i16, ptr, i32, ptr, ptr, i32, ptr, ptr, i32, ptr, i32, ptr, i32, i64, i64, ptr, i64, ptr, ptr, i32, i32, ptr, ptr, i32, ptr, ptr, i32, ptr, ptr, ptr, i32, i32, i64, i64, i64, i64, ptr, ptr, ptr, i32, ptr }

@resv_list = dso_local global ptr null, align 8

; Function Attrs: nounwind uwtable
define dso_local i64 @find_resv_end(i64 noundef %0, i32 noundef %1) #0 {
  %3 = alloca i64, align 8
  %4 = alloca i64, align 8
  %5 = alloca i32, align 4
  %6 = alloca ptr, align 8
  %7 = alloca ptr, align 8
  %8 = alloca i64, align 8
  %9 = alloca i32, align 4
  store i64 %0, ptr %4, align 8
  store i32 %1, ptr %5, align 4
  call void @llvm.lifetime.start.p0(i64 8, ptr %6) #10
  call void @llvm.lifetime.start.p0(i64 8, ptr %7) #10
  call void @llvm.lifetime.start.p0(i64 8, ptr %8) #10
  store i64 0, ptr %8, align 8
  %10 = load ptr, ptr @resv_list, align 8
  %11 = icmp ne ptr %10, null
  br i1 %11, label %14, label %12

12:                                               ; preds = %2
  %13 = load i64, ptr %8, align 8
  store i64 %13, ptr %3, align 8
  store i32 1, ptr %9, align 4
  br label %61

14:                                               ; preds = %2
  %15 = load ptr, ptr @resv_list, align 8
  %16 = call ptr @list_iterator_create(ptr noundef %15)
  store ptr %16, ptr %6, align 8
  br label %17

17:                                               ; preds = %41, %27, %14
  %18 = load ptr, ptr %6, align 8
  %19 = call ptr @list_next(ptr noundef %18)
  store ptr %19, ptr %7, align 8
  %20 = icmp ne ptr %19, null
  br i1 %20, label %21, label %42

21:                                               ; preds = %17
  %22 = load i64, ptr %4, align 8
  %23 = load ptr, ptr %7, align 8
  %24 = getelementptr inbounds nuw %struct.slurmctld_resv, ptr %23, i32 0, i32 13
  %25 = load i64, ptr %24, align 8
  %26 = icmp sgt i64 %22, %25
  br i1 %26, label %27, label %28

27:                                               ; preds = %21
  br label %17, !llvm.loop !72

28:                                               ; preds = %21
  %29 = load i64, ptr %8, align 8
  %30 = icmp eq i64 %29, 0
  br i1 %30, label %37, label %31

31:                                               ; preds = %28
  %32 = load ptr, ptr %7, align 8
  %33 = getelementptr inbounds nuw %struct.slurmctld_resv, ptr %32, i32 0, i32 13
  %34 = load i64, ptr %33, align 8
  %35 = load i64, ptr %8, align 8
  %36 = icmp slt i64 %34, %35
  br i1 %36, label %37, label %41

37:                                               ; preds = %31, %28
  %38 = load ptr, ptr %7, align 8
  %39 = getelementptr inbounds nuw %struct.slurmctld_resv, ptr %38, i32 0, i32 13
  %40 = load i64, ptr %39, align 8
  store i64 %40, ptr %8, align 8
  br label %41

41:                                               ; preds = %37, %31
  br label %17, !llvm.loop !72

42:                                               ; preds = %17
  %43 = load ptr, ptr %6, align 8
  call void @list_iterator_destroy(ptr noundef %43)
  %44 = load i32, ptr %5, align 4
  %45 = icmp sgt i32 %44, 0
  br i1 %45, label %46, label %59

46:                                               ; preds = %42
  %47 = load i64, ptr %8, align 8
  %48 = load i32, ptr %5, align 4
  %49 = sub nsw i32 %48, 1
  %50 = sext i32 %49 to i64
  %51 = add nsw i64 %47, %50
  %52 = load i32, ptr %5, align 4
  %53 = sext i32 %52 to i64
  %54 = sdiv i64 %51, %53
  store i64 %54, ptr %8, align 8
  %55 = load i32, ptr %5, align 4
  %56 = sext i32 %55 to i64
  %57 = load i64, ptr %8, align 8
  %58 = mul nsw i64 %57, %56
  store i64 %58, ptr %8, align 8
  br label %59

59:                                               ; preds = %46, %42
  %60 = load i64, ptr %8, align 8
  store i64 %60, ptr %3, align 8
  store i32 1, ptr %9, align 4
  br label %61

61:                                               ; preds = %59, %12
  call void @llvm.lifetime.end.p0(i64 8, ptr %8) #10
  call void @llvm.lifetime.end.p0(i64 8, ptr %7) #10
  call void @llvm.lifetime.end.p0(i64 8, ptr %6) #10
  %62 = load i64, ptr %3, align 8
  ret i64 %62
}