; Function Attrs: nounwind uwtable
define dso_local i64 @find_resv_end(i64 noundef %0, i32 noundef %1) local_unnamed_addr #0 {
  %3 = load ptr, ptr @resv_list, align 8
  %.not = icmp eq ptr %3, null
  br i1 %.not, label %24, label %4

4:                                                ; preds = %2
  %5 = tail call ptr @list_iterator_create(ptr noundef nonnull %3) #19
  br label %.outer

.outer:                                           ; preds = %12, %4
  %.0.ph = phi i64 [ %spec.select, %12 ], [ 0, %4 ]
  br label %6

6:                                                ; preds = %.outer, %8
  %7 = tail call ptr @list_next(ptr noundef %5) #19
  %.not21 = icmp eq ptr %7, null
  br i1 %.not21, label %15, label %8

8:                                                ; preds = %6
  %9 = getelementptr inbounds nuw i8, ptr %7, i64 104
  %10 = load i64, ptr %9, align 8
  %11 = icmp sgt i64 %0, %10
  br i1 %11, label %6, label %12, !llvm.loop !78

12:                                               ; preds = %8
  %13 = icmp eq i64 %.0.ph, 0
  %14 = tail call i64 @llvm.smin.i64(i64 %10, i64 %.0.ph)
  %spec.select = select i1 %13, i64 %10, i64 %14
  br label %.outer, !llvm.loop !78

15:                                               ; preds = %6
  tail call void @list_iterator_destroy(ptr noundef %5) #19
  %16 = icmp sgt i32 %1, 0
  br i1 %16, label %17, label %24

17:                                               ; preds = %15
  %18 = add nsw i32 %1, -1
  %19 = zext nneg i32 %18 to i64
  %20 = add nsw i64 %.0.ph, %19
  %21 = zext nneg i32 %1 to i64
  %.fr = freeze i64 %20
  %22 = srem i64 %.fr, %21
  %23 = sub nsw i64 %.fr, %22
  br label %24

24:                                               ; preds = %15, %17, %2
  %.016 = phi i64 [ 0, %2 ], [ %23, %17 ], [ %.0.ph, %15 ]
  ret i64 %.016
}